target datalayout = "e-m:e-p270:32:32-p271:32:32-p272:64:64-i64:64-i128:128-f80:128-n8:16:32:64-S128"
target triple = "x86_64-pc-linux-gnu"

%struct.JNINativeInterface_ = type { ptr, ptr, ptr, ptr, ptr, ptr, ptr, ptr, ptr, ptr, ptr, ptr, ptr, ptr, ptr, ptr, ptr, ptr, ptr, ptr, ptr, ptr, ptr, ptr, ptr, ptr, ptr, ptr, ptr, ptr, ptr, ptr, ptr, ptr, ptr, ptr, ptr, ptr, ptr, ptr, ptr, ptr, ptr, ptr, ptr, ptr, ptr, ptr, ptr, ptr, ptr, ptr, ptr, ptr, ptr, ptr, ptr, ptr, ptr, ptr, ptr, ptr, ptr, ptr, ptr, ptr, ptr, ptr, ptr, ptr, ptr, ptr, ptr, ptr, ptr, ptr, ptr, ptr, ptr, ptr, ptr, ptr, ptr, ptr, ptr, ptr, ptr, ptr, ptr, ptr, ptr, ptr, ptr, ptr, ptr, ptr, ptr, ptr, ptr, ptr, ptr, ptr, ptr, ptr, ptr, ptr, ptr, ptr, ptr, ptr, ptr, ptr, ptr, ptr, ptr, ptr, ptr, ptr, ptr, ptr, ptr, ptr, ptr, ptr, ptr, ptr, ptr, ptr, ptr, ptr, ptr, ptr, ptr, ptr, ptr, ptr, ptr, ptr, ptr, ptr, ptr, ptr, ptr, ptr, ptr, ptr, ptr, ptr, ptr, ptr, ptr, ptr, ptr, ptr, ptr, ptr, ptr, ptr, ptr, ptr, ptr, ptr, ptr, ptr, ptr, ptr, ptr, ptr, ptr, ptr, ptr, ptr, ptr, ptr, ptr, ptr, ptr, ptr, ptr, ptr, ptr, ptr, ptr, ptr, ptr, ptr, ptr, ptr, ptr, ptr, ptr, ptr, ptr, ptr, ptr, ptr, ptr, ptr, ptr, ptr, ptr, ptr, ptr, ptr, ptr, ptr, ptr, ptr, ptr, ptr, ptr, ptr, ptr, ptr, ptr, ptr, ptr, ptr, ptr, ptr, ptr, ptr, ptr, ptr, ptr, ptr, ptr, ptr, ptr, ptr, ptr, ptr, ptr, ptr, ptr }
%struct.GSS_FUNCTION_TABLE = type { ptr, ptr, ptr, ptr, ptr, ptr, ptr, ptr, ptr, ptr, ptr, ptr, ptr, ptr, ptr, ptr, ptr, ptr, ptr, ptr, ptr, ptr, ptr, ptr, ptr, ptr, ptr, ptr, ptr }
%struct.gss_buffer_desc_struct = type { i64, ptr }

@JGSS_DEBUG = external global i32, align 4
@stderr = external global ptr, align 8
@ftab = external global ptr, align 8
@MID_MessageProp_setQOP = external global ptr, align 8
@MID_MessageProp_setPrivacy = external global ptr, align 8
@.str.75 = private unnamed_addr constant [41 x i8] c"[GSSLibStub:%d] [GSSLibStub_unwrap] %lu\0A\00", align 1
@.str.76 = private unnamed_addr constant [20 x i8] c"[GSSLibStub_unwrap]\00", align 1

; Function Attrs: nounwind uwtable
define ptr @Java_sun_security_jgss_wrapper_GSSLibStub_unwrap(ptr noundef %0, ptr noundef %1, i64 noundef %2, ptr noundef %3, ptr noundef %4) #0 {
  %6 = alloca ptr, align 8
  %7 = alloca ptr, align 8
  %8 = alloca ptr, align 8
  %9 = alloca i64, align 8
  %10 = alloca ptr, align 8
  %11 = alloca ptr, align 8
  %12 = alloca i32, align 4
  %13 = alloca i32, align 4
  %14 = alloca ptr, align 8
  %15 = alloca %struct.gss_buffer_desc_struct, align 8
  %16 = alloca %struct.gss_buffer_desc_struct, align 8
  %17 = alloca i32, align 4
  %18 = alloca i32, align 4
  %19 = alloca ptr, align 8
  store ptr %0, ptr %7, align 8
  store ptr %1, ptr %8, align 8
  store i64 %2, ptr %9, align 8
  store ptr %3, ptr %10, align 8
  store ptr %4, ptr %11, align 8
  %20 = load i64, ptr %9, align 8
  %21 = inttoptr i64 %20 to ptr
  store ptr %21, ptr %14, align 8
  %22 = load i32, ptr @JGSS_DEBUG, align 4
  %23 = icmp ne i32 %22, 0
  br i1 %23, label %24, label %31

24:                                               ; preds = %5
  %25 = load ptr, ptr @stderr, align 8
  %26 = load ptr, ptr %14, align 8
  %27 = ptrtoint ptr %26 to i64
  %28 = call i32 (ptr, ptr, ...) @fprintf(ptr noundef %25, ptr noundef @.str.75, i32 noundef 1664, i64 noundef %27) #5
  %29 = load ptr, ptr @stderr, align 8
  %30 = call i32 @fflush(ptr noundef %29)
  br label %31

31:                                               ; preds = %24, %5
  %32 = load ptr, ptr %14, align 8
  %33 = icmp eq ptr %32, null
  br i1 %33, label %34, label %37

34:                                               ; preds = %31
  %35 = load ptr, ptr %7, align 8
  %36 = load ptr, ptr %8, align 8
  call void @checkStatus(ptr noundef %35, ptr noundef %36, i32 noundef 786432, i32 noundef 0, ptr noundef @.str.76)
  store ptr null, ptr %6, align 8
  br label %131

37:                                               ; preds = %31
  %38 = load ptr, ptr %7, align 8
  %39 = load ptr, ptr %10, align 8
  call void @initGSSBuffer(ptr noundef %38, ptr noundef %39, ptr noundef %15)
  %40 = load ptr, ptr %7, align 8
  %41 = load ptr, ptr %40, align 8
  %42 = getelementptr inbounds %struct.JNINativeInterface_, ptr %41, i32 0, i32 228
  %43 = load ptr, ptr %42, align 8
  %44 = load ptr, ptr %7, align 8
  %45 = call zeroext i8 %43(ptr noundef %44)
  %46 = icmp ne i8 %45, 0
  br i1 %46, label %47, label %48

47:                                               ; preds = %37
  store ptr null, ptr %6, align 8
  br label %131

48:                                               ; preds = %37
  store i32 0, ptr %17, align 4
  store i32 0, ptr %18, align 4
  %49 = load ptr, ptr @ftab, align 8
  %50 = getelementptr inbounds %struct.GSS_FUNCTION_TABLE, ptr %49, i32 0, i32 21
  %51 = load ptr, ptr %50, align 8
  %52 = load ptr, ptr %14, align 8
  %53 = call i32 %51(ptr noundef %12, ptr noundef %52, ptr noundef %15, ptr noundef %16, ptr noundef %17, ptr noundef %18)
  store i32 %53, ptr %13, align 4
  call void @resetGSSBuffer(ptr noundef %15)
  %54 = load ptr, ptr %7, align 8
  %55 = call ptr @getJavaBuffer(ptr noundef %54, ptr noundef %16)
  store ptr %55, ptr %19, align 8
  %56 = load ptr, ptr %7, align 8
  %57 = load ptr, ptr %56, align 8
  %58 = getelementptr inbounds %struct.JNINativeInterface_, ptr %57, i32 0, i32 228
  %59 = load ptr, ptr %58, align 8
  %60 = load ptr, ptr %7, align 8
  %61 = call zeroext i8 %59(ptr noundef %60)
  %62 = icmp ne i8 %61, 0
  br i1 %62, label %63, label %64

63:                                               ; preds = %48
  store ptr null, ptr %6, align 8
  br label %131

64:                                               ; preds = %48
  %65 = load ptr, ptr %7, align 8
  %66 = load ptr, ptr %8, align 8
  %67 = load i32, ptr %13, align 4
  %68 = and i32 %67, -65536
  %69 = load i32, ptr %12, align 4
  call void @checkStatus(ptr noundef %65, ptr noundef %66, i32 noundef %68, i32 noundef %69, ptr noundef @.str.76)
  %70 = load ptr, ptr %7, align 8
  %71 = load ptr, ptr %70, align 8
  %72 = getelementptr inbounds %struct.JNINativeInterface_, ptr %71, i32 0, i32 228
  %73 = load ptr, ptr %72, align 8
  %74 = load ptr, ptr %7, align 8
  %75 = call zeroext i8 %73(ptr noundef %74)
  %76 = icmp ne i8 %75, 0
  br i1 %76, label %77, label %78

77:                                               ; preds = %64
  store ptr null, ptr %6, align 8
  br label %131

78:                                               ; preds = %64
  %79 = load ptr, ptr %7, align 8
  %80 = load ptr, ptr %79, align 8
  %81 = getelementptr inbounds %struct.JNINativeInterface_, ptr %80, i32 0, i32 61
  %82 = load ptr, ptr %81, align 8
  %83 = load ptr, ptr %7, align 8
  %84 = load ptr, ptr %11, align 8
  %85 = load ptr, ptr @MID_MessageProp_setPrivacy, align 8
  %86 = load i32, ptr %17, align 4
  %87 = icmp ne i32 %86, 0
  %88 = zext i1 %87 to i32
  call void (ptr, ptr, ptr, ...) %82(ptr noundef %83, ptr noundef %84, ptr noundef %85, i32 noundef %88)
  %89 = load ptr, ptr %7, align 8
  %90 = load ptr, ptr %89, align 8
  %91 = getelementptr inbounds %struct.JNINativeInterface_, ptr %90, i32 0, i32 228
  %92 = load ptr, ptr %91, align 8
  %93 = load ptr, ptr %7, align 8
  %94 = call zeroext i8 %92(ptr noundef %93)
  %95 = icmp ne i8 %94, 0
  br i1 %95, label %96, label %97

96:                                               ; preds = %78
  store ptr null, ptr %6, align 8
  br label %131

97:                                               ; preds = %78
  %98 = load ptr, ptr %7, align 8
  %99 = load ptr, ptr %98, align 8
  %100 = getelementptr inbounds %struct.JNINativeInterface_, ptr %99, i32 0, i32 61
  %101 = load ptr, ptr %100, align 8
  %102 = load ptr, ptr %7, align 8
  %103 = load ptr, ptr %11, align 8
  %104 = load ptr, ptr @MID_MessageProp_setQOP, align 8
  %105 = load i32, ptr %18, align 4
  call void (ptr, ptr, ptr, ...) %101(ptr noundef %102, ptr noundef %103, ptr noundef %104, i32 noundef %105)
  %106 = load ptr, ptr %7, align 8
  %107 = load ptr, ptr %106, align 8
  %108 = getelementptr inbounds %struct.JNINativeInterface_, ptr %107, i32 0, i32 228
  %109 = load ptr, ptr %108, align 8
  %110 = load ptr, ptr %7, align 8
  %111 = call zeroext i8 %109(ptr noundef %110)
  %112 = icmp ne i8 %111, 0
  br i1 %112, label %113, label %114

113:                                              ; preds = %97
  store ptr null, ptr %6, align 8
  br label %131

114:                                              ; preds = %97
  %115 = load ptr, ptr %7, align 8
  %116 = load ptr, ptr %8, align 8
  %117 = load ptr, ptr %11, align 8
  %118 = load i32, ptr %13, align 4
  %119 = and i32 %118, 65535
  %120 = load i32, ptr %12, align 4
  call void @setSupplementaryInfo(ptr noundef %115, ptr noundef %116, ptr noundef %117, i32 noundef %119, i32 noundef %120)
  %121 = load ptr, ptr %7, align 8
  %122 = load ptr, ptr %121, align 8
  %123 = getelementptr inbounds %struct.JNINativeInterface_, ptr %122, i32 0, i32 228
  %124 = load ptr, ptr %123, align 8
  %125 = load ptr, ptr %7, align 8
  %126 = call zeroext i8 %124(ptr noundef %125)
  %127 = icmp ne i8 %126, 0
  br i1 %127, label %128, label %129

128:                                              ; preds = %114
  store ptr null, ptr %6, align 8
  br label %131

129:                                              ; preds = %114
  %130 = load ptr, ptr %19, align 8
  store ptr %130, ptr %6, align 8
  br label %131

131:                                              ; preds = %129, %128, %113, %96, %77, %63, %47, %34
  %132 = load ptr, ptr %6, align 8
  ret ptr %132
}