; Function Attrs: nounwind uwtable
define ptr @Java_sun_security_jgss_wrapper_GSSLibStub_unwrap(ptr noundef %0, ptr noundef %1, i64 noundef %2, ptr noundef %3, ptr noundef %4) local_unnamed_addr #0 {
  %6 = alloca i32, align 4
  %7 = alloca %struct.gss_buffer_desc_struct, align 8
  %8 = alloca %struct.gss_buffer_desc_struct, align 8
  %9 = alloca i32, align 4
  %10 = alloca i32, align 4
  %11 = inttoptr i64 %2 to ptr
  %12 = load i32, ptr @JGSS_DEBUG, align 4
  %.not = icmp eq i32 %12, 0
  br i1 %.not, label %18, label %13

13:                                               ; preds = %5
  %14 = load ptr, ptr @stderr, align 8
  %15 = tail call i32 (ptr, ptr, ...) @fprintf(ptr noundef %14, ptr noundef nonnull @.str.75, i32 noundef 1664, i64 noundef %2) #8
  %16 = load ptr, ptr @stderr, align 8
  %17 = tail call i32 @fflush(ptr noundef %16)
  br label %18

18:                                               ; preds = %13, %5
  %19 = icmp eq i64 %2, 0
  br i1 %19, label %20, label %21

20:                                               ; preds = %18
  tail call void @checkStatus(ptr noundef %0, ptr noundef %1, i32 noundef 786432, i32 noundef 0, ptr noundef nonnull @.str.76) #9
  br label %72

21:                                               ; preds = %18
  call void @initGSSBuffer(ptr noundef %0, ptr noundef %3, ptr noundef nonnull %7) #9
  %22 = load ptr, ptr %0, align 8
  %23 = getelementptr inbounds i8, ptr %22, i64 1824
  %24 = load ptr, ptr %23, align 8
  %25 = call zeroext i8 %24(ptr noundef nonnull %0) #9
  %.not36 = icmp eq i8 %25, 0
  br i1 %.not36, label %26, label %72

26:                                               ; preds = %21
  store i32 0, ptr %9, align 4
  store i32 0, ptr %10, align 4
  %27 = load ptr, ptr @ftab, align 8
  %28 = getelementptr inbounds i8, ptr %27, i64 168
  %29 = load ptr, ptr %28, align 8
  %30 = call i32 %29(ptr noundef nonnull %6, ptr noundef nonnull %11, ptr noundef nonnull %7, ptr noundef nonnull %8, ptr noundef nonnull %9, ptr noundef nonnull %10) #9
  call void @resetGSSBuffer(ptr noundef nonnull %7) #9
  %31 = call ptr @getJavaBuffer(ptr noundef nonnull %0, ptr noundef nonnull %8) #9
  %32 = load ptr, ptr %0, align 8
  %33 = getelementptr inbounds i8, ptr %32, i64 1824
  %34 = load ptr, ptr %33, align 8
  %35 = call zeroext i8 %34(ptr noundef nonnull %0) #9
  %.not37 = icmp eq i8 %35, 0
  br i1 %.not37, label %36, label %72

36:                                               ; preds = %26
  %37 = and i32 %30, -65536
  %38 = load i32, ptr %6, align 4
  call void @checkStatus(ptr noundef nonnull %0, ptr noundef %1, i32 noundef %37, i32 noundef %38, ptr noundef nonnull @.str.76) #9
  %39 = load ptr, ptr %0, align 8
  %40 = getelementptr inbounds i8, ptr %39, i64 1824
  %41 = load ptr, ptr %40, align 8
  %42 = call zeroext i8 %41(ptr noundef nonnull %0) #9
  %.not38 = icmp eq i8 %42, 0
  br i1 %.not38, label %43, label %72

43:                                               ; preds = %36
  %44 = load ptr, ptr %0, align 8
  %45 = getelementptr inbounds i8, ptr %44, i64 488
  %46 = load ptr, ptr %45, align 8
  %47 = load ptr, ptr @MID_MessageProp_setPrivacy, align 8
  %48 = load i32, ptr %9, align 4
  %49 = icmp ne i32 %48, 0
  %50 = zext i1 %49 to i32
  call void (ptr, ptr, ptr, ...) %46(ptr noundef nonnull %0, ptr noundef %4, ptr noundef %47, i32 noundef %50) #9
  %51 = load ptr, ptr %0, align 8
  %52 = getelementptr inbounds i8, ptr %51, i64 1824
  %53 = load ptr, ptr %52, align 8
  %54 = call zeroext i8 %53(ptr noundef nonnull %0) #9
  %.not39 = icmp eq i8 %54, 0
  br i1 %.not39, label %55, label %72

55:                                               ; preds = %43
  %56 = load ptr, ptr %0, align 8
  %57 = getelementptr inbounds i8, ptr %56, i64 488
  %58 = load ptr, ptr %57, align 8
  %59 = load ptr, ptr @MID_MessageProp_setQOP, align 8
  %60 = load i32, ptr %10, align 4
  call void (ptr, ptr, ptr, ...) %58(ptr noundef nonnull %0, ptr noundef %4, ptr noundef %59, i32 noundef %60) #9
  %61 = load ptr, ptr %0, align 8
  %62 = getelementptr inbounds i8, ptr %61, i64 1824
  %63 = load ptr, ptr %62, align 8
  %64 = call zeroext i8 %63(ptr noundef nonnull %0) #9
  %.not40 = icmp eq i8 %64, 0
  br i1 %.not40, label %65, label %72

65:                                               ; preds = %55
  %66 = and i32 %30, 65535
  %67 = load i32, ptr %6, align 4
  call void @setSupplementaryInfo(ptr noundef nonnull %0, ptr noundef %1, ptr noundef %4, i32 noundef %66, i32 noundef %67)
  %68 = load ptr, ptr %0, align 8
  %69 = getelementptr inbounds i8, ptr %68, i64 1824
  %70 = load ptr, ptr %69, align 8
  %71 = call zeroext i8 %70(ptr noundef nonnull %0) #9
  %.not41 = icmp eq i8 %71, 0
  %. = select i1 %.not41, ptr %31, ptr null
  br label %72

72:                                               ; preds = %65, %55, %43, %36, %26, %21, %20
  %.0 = phi ptr [ null, %20 ], [ null, %21 ], [ null, %26 ], [ null, %36 ], [ null, %43 ], [ null, %55 ], [ %., %65 ]
  ret ptr %.0
}